target datalayout = "e-m:e-p270:32:32-p271:32:32-p272:64:64-i64:64-i128:128-f80:128-n8:16:32:64-S128"
target triple = "x86_64-pc-linux-gnu"

%"class.logging::CheckOpResult" = type { ptr }
%"class.logging::LogMessage" = type <{ i32, [4 x i8], %"class.std::__cxx11::basic_ostringstream", i64, ptr, i32, [4 x i8] }>
%"class.std::__cxx11::basic_ostringstream" = type { %"class.std::basic_ostream.base", %"class.std::__cxx11::basic_stringbuf", %"class.std::basic_ios" }
%"class.std::basic_ostream.base" = type { ptr }
%"class.std::__cxx11::basic_stringbuf" = type { %"class.std::basic_streambuf", i32, %"class.std::__cxx11::basic_string" }
%"class.std::basic_streambuf" = type { ptr, ptr, ptr, ptr, ptr, ptr, ptr, %"class.std::locale" }
%"class.std::locale" = type { ptr }
%"class.std::__cxx11::basic_string" = type { %"struct.std::__cxx11::basic_string<char>::_Alloc_hider", i64, %union.anon }
%"struct.std::__cxx11::basic_string<char>::_Alloc_hider" = type { ptr }
%union.anon = type { i64, [8 x i8] }
%"class.std::basic_ios" = type { %"class.std::ios_base", ptr, i8, i8, ptr, ptr, ptr, ptr }
%"class.std::ios_base" = type { ptr, i64, i64, i32, i32, i32, ptr, %"struct.std::ios_base::_Words", [8 x %"struct.std::ios_base::_Words"], i32, ptr, %"class.std::locale" }
%"struct.std::ios_base::_Words" = type { ptr, i64 }
%"class.net::AeadBaseEncrypter" = type { %"class.net::QuicEncrypter", ptr, i64, i64, i64, [32 x i8], [4 x i8], %"class.net::ScopedEVPAEADCtx" }
%"class.net::QuicEncrypter" = type { ptr }
%"class.net::ScopedEVPAEADCtx" = type { %struct.evp_aead_ctx_st }
%struct.evp_aead_ctx_st = type { ptr, ptr }

@.str = private unnamed_addr constant [141 x i8] c"generated/home/dtcxzyw/WorkSpace/Projects/compilers/llvm-opt-benchmark/bench/libquic/libquic/src/net/quic/core/crypto/aead_base_encrypter.cc\00", align 1

; Function Attrs: mustprogress nounwind uwtable
define linkonce_odr void @_ZN3net13QuicEncrypterD2Ev(ptr noundef nonnull align 8 dereferenceable(8) %0) unnamed_addr #4 comdat align 2 {
  %2 = alloca ptr, align 8
  store ptr %0, ptr %2, align 8, !tbaa !22
  ret void
}

; Function Attrs: mustprogress nounwind uwtable
define linkonce_odr noundef nonnull align 8 dereferenceable(8) ptr @_ZN7logging10LogMessage6streamEv(ptr noundef nonnull align 8 dereferenceable(404) %0) #4 comdat align 2 {
  %2 = alloca ptr, align 8
  store ptr %0, ptr %2, align 8, !tbaa !30
  %3 = load ptr, ptr %2, align 8
  %4 = getelementptr inbounds nuw %"class.logging::LogMessage", ptr %3, i32 0, i32 2
  ret ptr %4
}

; Function Attrs: mustprogress nounwind uwtable
define linkonce_odr noundef ptr @_ZN7logging13CheckOpResult7messageB5cxx11Ev(ptr noundef nonnull align 8 dereferenceable(8) %0) #4 comdat align 2 {
  %2 = alloca ptr, align 8
  store ptr %0, ptr %2, align 8, !tbaa !24
  %3 = load ptr, ptr %2, align 8
  %4 = getelementptr inbounds nuw %"class.logging::CheckOpResult", ptr %3, i32 0, i32 0
  %5 = load ptr, ptr %4, align 8, !tbaa !28
  ret ptr %5
}

; Function Attrs: mustprogress nounwind uwtable
define linkonce_odr noundef zeroext i1 @_ZNK7logging13CheckOpResultcvbEv(ptr noundef nonnull align 8 dereferenceable(8) %0) #4 comdat align 2 {
  %2 = alloca ptr, align 8
  store ptr %0, ptr %2, align 8, !tbaa !24
  %3 = load ptr, ptr %2, align 8
  %4 = getelementptr inbounds nuw %"class.logging::CheckOpResult", ptr %3, i32 0, i32 0
  %5 = load ptr, ptr %4, align 8, !tbaa !28
  %6 = icmp ne ptr %5, null
  %7 = xor i1 %6, true
  ret i1 %7
}

; Function Attrs: mustprogress nounwind uwtable
define linkonce_odr void @_ZN7logging13CheckOpResultC2EPNSt7__cxx1112basic_stringIcSt11char_traitsIcESaIcEEE(ptr noundef nonnull align 8 dereferenceable(8) %0, ptr noundef %1) unnamed_addr #4 comdat align 2 {
  %3 = alloca ptr, align 8
  %4 = alloca ptr, align 8
  store ptr %0, ptr %3, align 8, !tbaa !24
  store ptr %1, ptr %4, align 8, !tbaa !26
  %5 = load ptr, ptr %3, align 8
  %6 = getelementptr inbounds nuw %"class.logging::CheckOpResult", ptr %5, i32 0, i32 0
  %7 = load ptr, ptr %4, align 8, !tbaa !26
  store ptr %7, ptr %6, align 8, !tbaa !28
  ret void
}

; Function Attrs: inlinehint mustprogress nounwind uwtable
define linkonce_odr void @_ZN3net13QuicEncrypterC2Ev(ptr noundef nonnull align 8 dereferenceable(8) %0) unnamed_addr #1 comdat align 2 {
  %2 = alloca ptr, align 8
  store ptr %0, ptr %2, align 8, !tbaa !22
  %3 = load ptr, ptr %2, align 8
  store ptr getelementptr inbounds inrange(-16, 88) ({ [13 x ptr] }, ptr @_ZTVN3net13QuicEncrypterE, i32 0, i32 0, i32 2), ptr %3, align 8, !tbaa !12
  ret void
}

; Function Attrs: mustprogress uwtable
define void @_ZN3net17AeadBaseEncrypterC2EPK11evp_aead_stmmm(ptr noundef nonnull align 8 dereferenceable(96) %0, ptr noundef %1, i64 noundef %2, i64 noundef %3, i64 noundef %4) unnamed_addr #0 align 2 personality ptr @__gxx_personality_v0 {
  %6 = alloca ptr, align 8
  %7 = alloca ptr, align 8
  %8 = alloca i64, align 8
  %9 = alloca i64, align 8
  %10 = alloca i64, align 8
  %11 = alloca ptr, align 8
  %12 = alloca i32, align 4
  %13 = alloca %"class.logging::CheckOpResult", align 8
  %14 = alloca %"class.logging::LogMessage", align 8
  %15 = alloca %"class.logging::CheckOpResult", align 8
  %16 = alloca %"class.logging::LogMessage", align 8
  %17 = alloca %"class.logging::CheckOpResult", align 8
  %18 = alloca %"class.logging::LogMessage", align 8
  store ptr %0, ptr %6, align 8, !tbaa !3
  store ptr %1, ptr %7, align 8, !tbaa !8
  store i64 %2, ptr %8, align 8, !tbaa !10
  store i64 %3, ptr %9, align 8, !tbaa !10
  store i64 %4, ptr %10, align 8, !tbaa !10
  %19 = load ptr, ptr %6, align 8
  call void @_ZN3net13QuicEncrypterC2Ev(ptr noundef nonnull align 8 dereferenceable(8) %19) #9
  store ptr getelementptr inbounds inrange(-16, 88) ({ [13 x ptr] }, ptr @_ZTVN3net17AeadBaseEncrypterE, i32 0, i32 0, i32 2), ptr %19, align 8, !tbaa !12
  %20 = getelementptr inbounds nuw %"class.net::AeadBaseEncrypter", ptr %19, i32 0, i32 1
  %21 = load ptr, ptr %7, align 8, !tbaa !8
  store ptr %21, ptr %20, align 8, !tbaa !14
  %22 = getelementptr inbounds nuw %"class.net::AeadBaseEncrypter", ptr %19, i32 0, i32 2
  %23 = load i64, ptr %8, align 8, !tbaa !10
  store i64 %23, ptr %22, align 8, !tbaa !19
  %24 = getelementptr inbounds nuw %"class.net::AeadBaseEncrypter", ptr %19, i32 0, i32 3
  %25 = load i64, ptr %9, align 8, !tbaa !10
  store i64 %25, ptr %24, align 8, !tbaa !20
  %26 = getelementptr inbounds nuw %"class.net::AeadBaseEncrypter", ptr %19, i32 0, i32 4
  %27 = load i64, ptr %10, align 8, !tbaa !10
  store i64 %27, ptr %26, align 8, !tbaa !21
  %28 = getelementptr inbounds nuw %"class.net::AeadBaseEncrypter", ptr %19, i32 0, i32 7
  invoke void @_ZN3net16ScopedEVPAEADCtxC1Ev(ptr noundef nonnull align 8 dereferenceable(16) %28)
          to label %29 unwind label %34

29:                                               ; preds = %5
  call void @llvm.lifetime.start.p0(i64 8, ptr %13) #9
  invoke void @_ZN7logging13CheckOpResultC2EPNSt7__cxx1112basic_stringIcSt11char_traitsIcESaIcEEE(ptr noundef nonnull align 8 dereferenceable(8) %13, ptr noundef null)
          to label %30 unwind label %38

30:                                               ; preds = %29
  %31 = invoke noundef zeroext i1 @_ZNK7logging13CheckOpResultcvbEv(ptr noundef nonnull align 8 dereferenceable(8) %13)
          to label %32 unwind label %38

32:                                               ; preds = %30
  br i1 %31, label %33, label %42

33:                                               ; preds = %32
  br label %57

34:                                               ; preds = %5
  %35 = landingpad { ptr, i32 }
          cleanup
  %36 = extractvalue { ptr, i32 } %35, 0
  store ptr %36, ptr %11, align 8
  %37 = extractvalue { ptr, i32 } %35, 1
  store i32 %37, ptr %12, align 4
  br label %110

38:                                               ; preds = %30, %29
  %39 = landingpad { ptr, i32 }
          cleanup
  %40 = extractvalue { ptr, i32 } %39, 0
  store ptr %40, ptr %11, align 8
  %41 = extractvalue { ptr, i32 } %39, 1
  store i32 %41, ptr %12, align 4
  br label %62

42:                                               ; preds = %32
  call void @llvm.lifetime.start.p0(i64 408, ptr %14) #9
  %43 = invoke noundef ptr @_ZN7logging13CheckOpResult7messageB5cxx11Ev(ptr noundef nonnull align 8 dereferenceable(8) %13)
          to label %44 unwind label %48

44:                                               ; preds = %42
  invoke void @_ZN7logging10LogMessageC1EPKciiPNSt7__cxx1112basic_stringIcSt11char_traitsIcESaIcEEE(ptr noundef nonnull align 8 dereferenceable(404) %14, ptr noundef @.str, i32 noundef 50, i32 noundef 0, ptr noundef %43)
          to label %45 unwind label %48

45:                                               ; preds = %44
  %46 = invoke noundef nonnull align 8 dereferenceable(8) ptr @_ZN7logging10LogMessage6streamEv(ptr noundef nonnull align 8 dereferenceable(404) %14)
          to label %47 unwind label %52

47:                                               ; preds = %45
  call void @_ZN7logging10LogMessageD1Ev(ptr noundef nonnull align 8 dereferenceable(404) %14) #9
  call void @llvm.lifetime.end.p0(i64 408, ptr %14) #9
  br label %57

48:                                               ; preds = %44, %42
  %49 = landingpad { ptr, i32 }
          cleanup
  %50 = extractvalue { ptr, i32 } %49, 0
  store ptr %50, ptr %11, align 8
  %51 = extractvalue { ptr, i32 } %49, 1
  store i32 %51, ptr %12, align 4
  br label %56

52:                                               ; preds = %45
  %53 = landingpad { ptr, i32 }
          cleanup
  %54 = extractvalue { ptr, i32 } %53, 0
  store ptr %54, ptr %11, align 8
  %55 = extractvalue { ptr, i32 } %53, 1
  store i32 %55, ptr %12, align 4
  call void @_ZN7logging10LogMessageD1Ev(ptr noundef nonnull align 8 dereferenceable(404) %14) #9
  br label %56

56:                                               ; preds = %52, %48
  call void @llvm.lifetime.end.p0(i64 408, ptr %14) #9
  br label %62

57:                                               ; preds = %47, %33
  call void @llvm.lifetime.end.p0(i64 8, ptr %13) #9
  call void @llvm.lifetime.start.p0(i64 8, ptr %15) #9
  invoke void @_ZN7logging13CheckOpResultC2EPNSt7__cxx1112basic_stringIcSt11char_traitsIcESaIcEEE(ptr noundef nonnull align 8 dereferenceable(8) %15, ptr noundef null)
          to label %58 unwind label %63

58:                                               ; preds = %57
  %59 = invoke noundef zeroext i1 @_ZNK7logging13CheckOpResultcvbEv(ptr noundef nonnull align 8 dereferenceable(8) %15)
          to label %60 unwind label %63

60:                                               ; preds = %58
  br i1 %59, label %61, label %67

61:                                               ; preds = %60
  br label %82

62:                                               ; preds = %56, %38
  call void @llvm.lifetime.end.p0(i64 8, ptr %13) #9
  br label %109

63:                                               ; preds = %58, %57
  %64 = landingpad { ptr, i32 }
          cleanup
  %65 = extractvalue { ptr, i32 } %64, 0
  store ptr %65, ptr %11, align 8
  %66 = extractvalue { ptr, i32 } %64, 1
  store i32 %66, ptr %12, align 4
  br label %87

67:                                               ; preds = %60
  call void @llvm.lifetime.start.p0(i64 408, ptr %16) #9
  %68 = invoke noundef ptr @_ZN7logging13CheckOpResult7messageB5cxx11Ev(ptr noundef nonnull align 8 dereferenceable(8) %15)
          to label %69 unwind label %73

69:                                               ; preds = %67
  invoke void @_ZN7logging10LogMessageC1EPKciiPNSt7__cxx1112basic_stringIcSt11char_traitsIcESaIcEEE(ptr noundef nonnull align 8 dereferenceable(404) %16, ptr noundef @.str, i32 noundef 51, i32 noundef 0, ptr noundef %68)
          to label %70 unwind label %73

70:                                               ; preds = %69
  %71 = invoke noundef nonnull align 8 dereferenceable(8) ptr @_ZN7logging10LogMessage6streamEv(ptr noundef nonnull align 8 dereferenceable(404) %16)
          to label %72 unwind label %77

72:                                               ; preds = %70
  call void @_ZN7logging10LogMessageD1Ev(ptr noundef nonnull align 8 dereferenceable(404) %16) #9
  call void @llvm.lifetime.end.p0(i64 408, ptr %16) #9
  br label %82

73:                                               ; preds = %69, %67
  %74 = landingpad { ptr, i32 }
          cleanup
  %75 = extractvalue { ptr, i32 } %74, 0
  store ptr %75, ptr %11, align 8
  %76 = extractvalue { ptr, i32 } %74, 1
  store i32 %76, ptr %12, align 4
  br label %81

77:                                               ; preds = %70
  %78 = landingpad { ptr, i32 }
          cleanup
  %79 = extractvalue { ptr, i32 } %78, 0
  store ptr %79, ptr %11, align 8
  %80 = extractvalue { ptr, i32 } %78, 1
  store i32 %80, ptr %12, align 4
  call void @_ZN7logging10LogMessageD1Ev(ptr noundef nonnull align 8 dereferenceable(404) %16) #9
  br label %81

81:                                               ; preds = %77, %73
  call void @llvm.lifetime.end.p0(i64 408, ptr %16) #9
  br label %87

82:                                               ; preds = %72, %61
  call void @llvm.lifetime.end.p0(i64 8, ptr %15) #9
  call void @llvm.lifetime.start.p0(i64 8, ptr %17) #9
  invoke void @_ZN7logging13CheckOpResultC2EPNSt7__cxx1112basic_stringIcSt11char_traitsIcESaIcEEE(ptr noundef nonnull align 8 dereferenceable(8) %17, ptr noundef null)
          to label %83 unwind label %88

83:                                               ; preds = %82
  %84 = invoke noundef zeroext i1 @_ZNK7logging13CheckOpResultcvbEv(ptr noundef nonnull align 8 dereferenceable(8) %17)
          to label %85 unwind label %88

85:                                               ; preds = %83
  br i1 %84, label %86, label %92

86:                                               ; preds = %85
  br label %107

87:                                               ; preds = %81, %63
  call void @llvm.lifetime.end.p0(i64 8, ptr %15) #9
  br label %109

88:                                               ; preds = %83, %82
  %89 = landingpad { ptr, i32 }
          cleanup
  %90 = extractvalue { ptr, i32 } %89, 0
  store ptr %90, ptr %11, align 8
  %91 = extractvalue { ptr, i32 } %89, 1
  store i32 %91, ptr %12, align 4
  br label %108

92:                                               ; preds = %85
  call void @llvm.lifetime.start.p0(i64 408, ptr %18) #9
  %93 = invoke noundef ptr @_ZN7logging13CheckOpResult7messageB5cxx11Ev(ptr noundef nonnull align 8 dereferenceable(8) %17)
          to label %94 unwind label %98

94:                                               ; preds = %92
  invoke void @_ZN7logging10LogMessageC1EPKciiPNSt7__cxx1112basic_stringIcSt11char_traitsIcESaIcEEE(ptr noundef nonnull align 8 dereferenceable(404) %18, ptr noundef @.str, i32 noundef 52, i32 noundef 0, ptr noundef %93)
          to label %95 unwind label %98

95:                                               ; preds = %94
  %96 = invoke noundef nonnull align 8 dereferenceable(8) ptr @_ZN7logging10LogMessage6streamEv(ptr noundef nonnull align 8 dereferenceable(404) %18)
          to label %97 unwind label %102

97:                                               ; preds = %95
  call void @_ZN7logging10LogMessageD1Ev(ptr noundef nonnull align 8 dereferenceable(404) %18) #9
  call void @llvm.lifetime.end.p0(i64 408, ptr %18) #9
  br label %107

98:                                               ; preds = %94, %92
  %99 = landingpad { ptr, i32 }
          cleanup
  %100 = extractvalue { ptr, i32 } %99, 0
  store ptr %100, ptr %11, align 8
  %101 = extractvalue { ptr, i32 } %99, 1
  store i32 %101, ptr %12, align 4
  br label %106

102:                                              ; preds = %95
  %103 = landingpad { ptr, i32 }
          cleanup
  %104 = extractvalue { ptr, i32 } %103, 0
  store ptr %104, ptr %11, align 8
  %105 = extractvalue { ptr, i32 } %103, 1
  store i32 %105, ptr %12, align 4
  call void @_ZN7logging10LogMessageD1Ev(ptr noundef nonnull align 8 dereferenceable(404) %18) #9
  br label %106

106:                                              ; preds = %102, %98
  call void @llvm.lifetime.end.p0(i64 408, ptr %18) #9
  br label %108

107:                                              ; preds = %97, %86
  call void @llvm.lifetime.end.p0(i64 8, ptr %17) #9
  ret void

108:                                              ; preds = %106, %88
  call void @llvm.lifetime.end.p0(i64 8, ptr %17) #9
  br label %109

109:                                              ; preds = %108, %87, %62
  call void @_ZN3net16ScopedEVPAEADCtxD1Ev(ptr noundef nonnull align 8 dereferenceable(16) %28) #9
  br label %110

110:                                              ; preds = %109, %34
  call void @_ZN3net13QuicEncrypterD2Ev(ptr noundef nonnull align 8 dereferenceable(8) %19) #9
  br label %111

111:                                              ; preds = %110
  %112 = load ptr, ptr %11, align 8
  %113 = load i32, ptr %12, align 4
  %114 = insertvalue { ptr, i32 } poison, ptr %112, 0
  %115 = insertvalue { ptr, i32 } %114, i32 %113, 1
  resume { ptr, i32 } %115
}