; Function Attrs: mustprogress uwtable
define void @_ZN3net17AeadBaseEncrypterC2EPK11evp_aead_stmmm(ptr noundef nonnull align 8 dereferenceable(96) initializes((0, 40)) %0, ptr noundef %1, i64 noundef %2, i64 noundef %3, i64 noundef %4) unnamed_addr #0 align 2 personality ptr @__gxx_personality_v0 {
  store ptr getelementptr inbounds nuw inrange(-16, 88) (i8, ptr @_ZTVN3net17AeadBaseEncrypterE, i64 16), ptr %0, align 8, !tbaa !3
  %6 = getelementptr inbounds nuw i8, ptr %0, i64 8
  store ptr %1, ptr %6, align 8, !tbaa !6
  %7 = getelementptr inbounds nuw i8, ptr %0, i64 16
  store i64 %2, ptr %7, align 8, !tbaa !15
  %8 = getelementptr inbounds nuw i8, ptr %0, i64 24
  store i64 %3, ptr %8, align 8, !tbaa !16
  %9 = getelementptr inbounds nuw i8, ptr %0, i64 32
  store i64 %4, ptr %9, align 8, !tbaa !17
  %10 = getelementptr inbounds nuw i8, ptr %0, i64 80
  tail call void @_ZN3net16ScopedEVPAEADCtxC1Ev(ptr noundef nonnull align 8 dereferenceable(16) %10)
  ret void
}